target datalayout = "e-m:e-p270:32:32-p271:32:32-p272:64:64-i64:64-i128:128-f80:128-n8:16:32:64-S128"
target triple = "x86_64-pc-linux-gnu"

%struct.attr_hash_entry = type { %struct.hashmap_entry, ptr, i64, ptr }
%struct.hashmap_entry = type { ptr, i32 }

; Function Attrs: nounwind uwtable
define internal i32 @attr_hash_entry_cmp(ptr noundef %0, ptr noundef %1, ptr noundef %2, ptr noundef %3) #0 {
  %5 = alloca ptr, align 8
  %6 = alloca ptr, align 8
  %7 = alloca ptr, align 8
  %8 = alloca ptr, align 8
  %9 = alloca ptr, align 8
  %10 = alloca ptr, align 8
  store ptr %0, ptr %5, align 8, !tbaa !50
  store ptr %1, ptr %6, align 8, !tbaa !91
  store ptr %2, ptr %7, align 8, !tbaa !91
  store ptr %3, ptr %8, align 8, !tbaa !50
  call void @llvm.lifetime.start.p0(i64 8, ptr %9) #11
  call void @llvm.lifetime.start.p0(i64 8, ptr %10) #11
  %11 = load ptr, ptr %6, align 8, !tbaa !91
  %12 = getelementptr inbounds i8, ptr %11, i64 0
  store ptr %12, ptr %9, align 8, !tbaa !83
  %13 = load ptr, ptr %7, align 8, !tbaa !91
  %14 = getelementptr inbounds i8, ptr %13, i64 0
  store ptr %14, ptr %10, align 8, !tbaa !83
  %15 = load ptr, ptr %9, align 8, !tbaa !83
  %16 = getelementptr inbounds nuw %struct.attr_hash_entry, ptr %15, i32 0, i32 2
  %17 = load i64, ptr %16, align 8, !tbaa !82
  %18 = load ptr, ptr %10, align 8, !tbaa !83
  %19 = getelementptr inbounds nuw %struct.attr_hash_entry, ptr %18, i32 0, i32 2
  %20 = load i64, ptr %19, align 8, !tbaa !82
  %21 = icmp ne i64 %17, %20
  br i1 %21, label %34, label %22

22:                                               ; preds = %4
  %23 = load ptr, ptr %9, align 8, !tbaa !83
  %24 = getelementptr inbounds nuw %struct.attr_hash_entry, ptr %23, i32 0, i32 1
  %25 = load ptr, ptr %24, align 8, !tbaa !78
  %26 = load ptr, ptr %10, align 8, !tbaa !83
  %27 = getelementptr inbounds nuw %struct.attr_hash_entry, ptr %26, i32 0, i32 1
  %28 = load ptr, ptr %27, align 8, !tbaa !78
  %29 = load ptr, ptr %9, align 8, !tbaa !83
  %30 = getelementptr inbounds nuw %struct.attr_hash_entry, ptr %29, i32 0, i32 2
  %31 = load i64, ptr %30, align 8, !tbaa !82
  %32 = call i32 @strncmp(ptr noundef %25, ptr noundef %28, i64 noundef %31) #10
  %33 = icmp ne i32 %32, 0
  br label %34

34:                                               ; preds = %22, %4
  %35 = phi i1 [ true, %4 ], [ %33, %22 ]
  %36 = zext i1 %35 to i32
  call void @llvm.lifetime.end.p0(i64 8, ptr %10) #11
  call void @llvm.lifetime.end.p0(i64 8, ptr %9) #11
  ret i32 %36
}